target datalayout = "e-m:e-p270:32:32-p271:32:32-p272:64:64-i64:64-i128:128-f80:128-n8:16:32:64-S128"
target triple = "x86_64-unknown-linux-gnu"

%"class.std::set.0" = type { %"class.std::_Rb_tree.1" }
%"class.std::_Rb_tree.1" = type { %"struct.std::_Rb_tree<QuantLib::Observer *, QuantLib::Observer *, std::_Identity<QuantLib::Observer *>, std::less<QuantLib::Observer *>>::_Rb_tree_impl" }
%"struct.std::_Rb_tree<QuantLib::Observer *, QuantLib::Observer *, std::_Identity<QuantLib::Observer *>, std::less<QuantLib::Observer *>>::_Rb_tree_impl" = type { [8 x i8], %"struct.std::_Rb_tree_header" }
%"struct.std::_Rb_tree_header" = type { %"struct.std::_Rb_tree_node_base", i64 }
%"struct.std::_Rb_tree_node_base" = type { i32, ptr, ptr, ptr }
%"class.QuantLib::Date" = type { i64 }
%"class.boost::detail::shared_count" = type { ptr }
%"class.std::set" = type { %"class.std::_Rb_tree" }
%"class.std::_Rb_tree" = type { %"struct.std::_Rb_tree<boost::shared_ptr<QuantLib::Observable>, boost::shared_ptr<QuantLib::Observable>, std::_Identity<boost::shared_ptr<QuantLib::Observable>>, std::less<boost::shared_ptr<QuantLib::Observable>>>::_Rb_tree_impl" }
%"struct.std::_Rb_tree<boost::shared_ptr<QuantLib::Observable>, boost::shared_ptr<QuantLib::Observable>, std::_Identity<boost::shared_ptr<QuantLib::Observable>>, std::less<boost::shared_ptr<QuantLib::Observable>>>::_Rb_tree_impl" = type { [8 x i8], %"struct.std::_Rb_tree_header" }
%"class.QuantLib::Observable" = type { ptr, %"class.std::set.0" }
%"class.QuantLib::Array" = type { %"class.std::unique_ptr", i64 }
%"class.std::unique_ptr" = type { %"struct.std::__uniq_ptr_data" }
%"struct.std::__uniq_ptr_data" = type { %"class.std::__uniq_ptr_impl" }
%"class.std::__uniq_ptr_impl" = type { %"class.std::tuple" }
%"class.std::tuple" = type { %"struct.std::_Tuple_impl" }
%"struct.std::_Tuple_impl" = type { %"struct.std::_Head_base.19" }
%"struct.std::_Head_base.19" = type { ptr }
%"class.QuantLib::AnalyticHestonForwardEuropeanEngine" = type { %"class.QuantLib::GenericEngine", %"class.boost::shared_ptr.27", i64, double, double, double, double, double, %"class.QuantLib::Handle", %"class.QuantLib::Handle", %"class.QuantLib::Handle.29", double, double, double, %"class.QuantLib::GaussLegendreIntegration" }
%"class.QuantLib::GenericEngine" = type { %"class.QuantLib::PricingEngine", %"class.QuantLib::Observer", %"class.QuantLib::ForwardOptionArguments", %"class.QuantLib::OneAssetOption::results" }
%"class.QuantLib::PricingEngine" = type { %"class.QuantLib::Observable" }
%"class.QuantLib::Observer" = type { ptr, %"class.std::set" }
%"class.QuantLib::ForwardOptionArguments" = type { %"class.QuantLib::Option::arguments", double, %"class.QuantLib::Date" }
%"class.QuantLib::Option::arguments" = type { %"class.QuantLib::PricingEngine::arguments", %"class.boost::shared_ptr.16", %"class.boost::shared_ptr.17" }
%"class.QuantLib::PricingEngine::arguments" = type { ptr }
%"class.boost::shared_ptr.16" = type { ptr, %"class.boost::detail::shared_count" }
%"class.boost::shared_ptr.17" = type { ptr, %"class.boost::detail::shared_count" }
%"class.QuantLib::OneAssetOption::results" = type { %"class.QuantLib::Instrument::results", %"class.QuantLib::Greeks", %"class.QuantLib::MoreGreeks" }
%"class.QuantLib::Instrument::results" = type { %"class.QuantLib::PricingEngine::results", double, double, %"class.QuantLib::Date", %"class.std::map" }
%"class.QuantLib::PricingEngine::results" = type { ptr }
%"class.std::map" = type { %"class.std::_Rb_tree.10" }
%"class.std::_Rb_tree.10" = type { %"struct.std::_Rb_tree<std::__cxx11::basic_string<char>, std::pair<const std::__cxx11::basic_string<char>, boost::any>, std::_Select1st<std::pair<const std::__cxx11::basic_string<char>, boost::any>>, std::less<std::__cxx11::basic_string<char>>>::_Rb_tree_impl" }
%"struct.std::_Rb_tree<std::__cxx11::basic_string<char>, std::pair<const std::__cxx11::basic_string<char>, boost::any>, std::_Select1st<std::pair<const std::__cxx11::basic_string<char>, boost::any>>, std::less<std::__cxx11::basic_string<char>>>::_Rb_tree_impl" = type { [8 x i8], %"struct.std::_Rb_tree_header" }
%"class.QuantLib::Greeks" = type { %"class.QuantLib::PricingEngine::results", double, double, double, double, double, double }
%"class.QuantLib::MoreGreeks" = type { %"class.QuantLib::PricingEngine::results", double, double, double, double, double }
%"class.boost::shared_ptr.27" = type { ptr, %"class.boost::detail::shared_count" }
%"class.QuantLib::Handle" = type { %"class.boost::shared_ptr.28" }
%"class.boost::shared_ptr.28" = type { ptr, %"class.boost::detail::shared_count" }
%"class.QuantLib::Handle.29" = type { %"class.boost::shared_ptr.30" }
%"class.boost::shared_ptr.30" = type { ptr, %"class.boost::detail::shared_count" }
%"class.QuantLib::GaussLegendreIntegration" = type { %"class.QuantLib::GaussianQuadrature" }
%"class.QuantLib::GaussianQuadrature" = type { %"class.QuantLib::Array", %"class.QuantLib::Array" }

; Function Attrs: mustprogress uwtable
define noundef double @_ZNK8QuantLib35AnalyticHestonForwardEuropeanEngine10propagatorEdd(ptr noundef nonnull align 8 dereferenceable(520) %this, double noundef %resetTime, double noundef %varReset) #2 align 2 {
entry:
  %this.addr = alloca ptr, align 8
  %resetTime.addr = alloca double, align 8
  %varReset.addr = alloca double, align 8
  %B = alloca double, align 8
  %Lambda = alloca double, align 8
  %term1 = alloca double, align 8
  %term2 = alloca double, align 8
  %term3 = alloca double, align 8
  store ptr %this, ptr %this.addr, align 8, !tbaa !3
  store double %resetTime, ptr %resetTime.addr, align 8, !tbaa !85
  store double %varReset, ptr %varReset.addr, align 8, !tbaa !85
  %this1 = load ptr, ptr %this.addr, align 8
  call void @llvm.lifetime.start.p0(i64 8, ptr %B) #16
  call void @llvm.lifetime.start.p0(i64 8, ptr %Lambda) #16
  call void @llvm.lifetime.start.p0(i64 8, ptr %term1) #16
  call void @llvm.lifetime.start.p0(i64 8, ptr %term2) #16
  call void @llvm.lifetime.start.p0(i64 8, ptr %term3) #16
  %kappaHat_ = getelementptr inbounds nuw %"class.QuantLib::AnalyticHestonForwardEuropeanEngine", ptr %this1, i32 0, i32 11
  %0 = load double, ptr %kappaHat_, align 8, !tbaa !72
  %mul = fmul double 4.000000e+00, %0
  %sigma_ = getelementptr inbounds nuw %"class.QuantLib::AnalyticHestonForwardEuropeanEngine", ptr %this1, i32 0, i32 7
  %1 = load double, ptr %sigma_, align 8, !tbaa !71
  %sigma_2 = getelementptr inbounds nuw %"class.QuantLib::AnalyticHestonForwardEuropeanEngine", ptr %this1, i32 0, i32 7
  %2 = load double, ptr %sigma_2, align 8, !tbaa !71
  %mul3 = fmul double %1, %2
  %kappaHat_4 = getelementptr inbounds nuw %"class.QuantLib::AnalyticHestonForwardEuropeanEngine", ptr %this1, i32 0, i32 11
  %3 = load double, ptr %kappaHat_4, align 8, !tbaa !72
  %fneg = fneg double %3
  %4 = load double, ptr %resetTime.addr, align 8, !tbaa !85
  %mul5 = fmul double %fneg, %4
  %call = call double @exp(double noundef %mul5) #16, !tbaa !87
  %sub = fsub double 1.000000e+00, %call
  %mul6 = fmul double %mul3, %sub
  %div = fdiv double %mul, %mul6
  store double %div, ptr %B, align 8, !tbaa !85
  %5 = load double, ptr %B, align 8, !tbaa !85
  %kappaHat_7 = getelementptr inbounds nuw %"class.QuantLib::AnalyticHestonForwardEuropeanEngine", ptr %this1, i32 0, i32 11
  %6 = load double, ptr %kappaHat_7, align 8, !tbaa !72
  %fneg8 = fneg double %6
  %7 = load double, ptr %resetTime.addr, align 8, !tbaa !85
  %mul9 = fmul double %fneg8, %7
  %call10 = call double @exp(double noundef %mul9) #16, !tbaa !87
  %mul11 = fmul double %5, %call10
  %v0_ = getelementptr inbounds nuw %"class.QuantLib::AnalyticHestonForwardEuropeanEngine", ptr %this1, i32 0, i32 3
  %8 = load double, ptr %v0_, align 8, !tbaa !67
  %mul12 = fmul double %mul11, %8
  store double %mul12, ptr %Lambda, align 8, !tbaa !85
  %9 = load double, ptr %B, align 8, !tbaa !85
  %10 = load double, ptr %varReset.addr, align 8, !tbaa !85
  %11 = load double, ptr %Lambda, align 8, !tbaa !85
  %12 = call double @llvm.fmuladd.f64(double %9, double %10, double %11)
  %mul14 = fmul double -5.000000e-01, %12
  %call15 = call double @exp(double noundef %mul14) #16, !tbaa !87
  %13 = load double, ptr %B, align 8, !tbaa !85
  %mul16 = fmul double %call15, %13
  %div17 = fdiv double %mul16, 2.000000e+00
  store double %div17, ptr %term1, align 8, !tbaa !85
  %14 = load double, ptr %B, align 8, !tbaa !85
  %15 = load double, ptr %varReset.addr, align 8, !tbaa !85
  %mul18 = fmul double %14, %15
  %16 = load double, ptr %Lambda, align 8, !tbaa !85
  %div19 = fdiv double %mul18, %16
  %R_ = getelementptr inbounds nuw %"class.QuantLib::AnalyticHestonForwardEuropeanEngine", ptr %this1, i32 0, i32 13
  %17 = load double, ptr %R_, align 8, !tbaa !74
  %div20 = fdiv double %17, 2.000000e+00
  %sub21 = fsub double %div20, 1.000000e+00
  %mul22 = fmul double 5.000000e-01, %sub21
  %call23 = call double @pow(double noundef %div19, double noundef %mul22) #16, !tbaa !87
  store double %call23, ptr %term2, align 8, !tbaa !85
  %R_24 = getelementptr inbounds nuw %"class.QuantLib::AnalyticHestonForwardEuropeanEngine", ptr %this1, i32 0, i32 13
  %18 = load double, ptr %R_24, align 8, !tbaa !74
  %div25 = fdiv double %18, 2.000000e+00
  %sub26 = fsub double %div25, 1.000000e+00
  %19 = load double, ptr %Lambda, align 8, !tbaa !85
  %20 = load double, ptr %B, align 8, !tbaa !85
  %mul27 = fmul double %19, %20
  %21 = load double, ptr %varReset.addr, align 8, !tbaa !85
  %mul28 = fmul double %mul27, %21
  %call29 = call double @sqrt(double noundef %mul28) #16, !tbaa !87
  %call30 = call noundef double @_ZN8QuantLib24modifiedBesselFunction_iEdd(double noundef %sub26, double noundef %call29)
  store double %call30, ptr %term3, align 8, !tbaa !85
  %22 = load double, ptr %term1, align 8, !tbaa !85
  %23 = load double, ptr %term2, align 8, !tbaa !85
  %mul31 = fmul double %22, %23
  %24 = load double, ptr %term3, align 8, !tbaa !85
  %mul32 = fmul double %mul31, %24
  call void @llvm.lifetime.end.p0(i64 8, ptr %term3) #16
  call void @llvm.lifetime.end.p0(i64 8, ptr %term2) #16
  call void @llvm.lifetime.end.p0(i64 8, ptr %term1) #16
  call void @llvm.lifetime.end.p0(i64 8, ptr %Lambda) #16
  call void @llvm.lifetime.end.p0(i64 8, ptr %B) #16
  ret double %mul32
}