; Function Attrs: mustprogress uwtable
define noundef double @_ZNK8QuantLib35AnalyticHestonForwardEuropeanEngine10propagatorEdd(ptr nocapture noundef nonnull readonly align 8 dereferenceable(520) %this, double noundef %resetTime, double noundef %varReset) local_unnamed_addr #8 align 2 {
entry:
  %kappaHat_ = getelementptr inbounds nuw i8, ptr %this, i64 464
  %0 = load double, ptr %kappaHat_, align 8, !tbaa !100
  %mul = fmul double %0, 4.000000e+00
  %sigma_ = getelementptr inbounds nuw i8, ptr %this, i64 408
  %1 = load double, ptr %sigma_, align 8, !tbaa !97
  %mul3 = fmul double %1, %1
  %fneg = fneg double %0
  %mul5 = fmul double %resetTime, %fneg
  %call = tail call double @exp(double noundef %mul5) #27, !tbaa !122
  %sub = fsub double 1.000000e+00, %call
  %mul6 = fmul double %mul3, %sub
  %div = fdiv double %mul, %mul6
  %call10 = tail call double @exp(double noundef %mul5) #27, !tbaa !122
  %mul11 = fmul double %call10, %div
  %v0_ = getelementptr inbounds nuw i8, ptr %this, i64 376
  %2 = load double, ptr %v0_, align 8, !tbaa !89
  %mul12 = fmul double %2, %mul11
  %3 = tail call double @llvm.fmuladd.f64(double %div, double %varReset, double %mul12)
  %mul14 = fmul double %3, -5.000000e-01
  %call15 = tail call double @exp(double noundef %mul14) #27, !tbaa !122
  %mul16 = fmul double %call15, %div
  %div17 = fmul double %mul16, 5.000000e-01
  %mul18 = fmul double %varReset, %div
  %div19 = fdiv double %mul18, %mul12
  %R_ = getelementptr inbounds nuw i8, ptr %this, i64 480
  %4 = load double, ptr %R_, align 8, !tbaa !102
  %div20 = fmul double %4, 5.000000e-01
  %sub21 = fadd double %div20, -1.000000e+00
  %mul22 = fmul double %sub21, 5.000000e-01
  %call23 = tail call double @pow(double noundef %div19, double noundef %mul22) #27, !tbaa !122
  %mul27 = fmul double %div, %mul12
  %mul28 = fmul double %varReset, %mul27
  %call29 = tail call double @sqrt(double noundef %mul28) #27, !tbaa !122
  %call30 = tail call noundef double @_ZN8QuantLib24modifiedBesselFunction_iEdd(double noundef %sub21, double noundef %call29)
  %mul31 = fmul double %div17, %call23
  %mul32 = fmul double %mul31, %call30
  ret double %mul32
}